target datalayout = "e-m:e-p270:32:32-p271:32:32-p272:64:64-i64:64-i128:128-f80:128-n8:16:32:64-S128"
target triple = "x86_64-pc-linux-gnu"

%class.QFlags = type { i32 }
%class.SCTPAllAssocsDialog = type <{ %class.QDialog, ptr, ptr, i16, [6 x i8] }>
%class.QDialog = type { %class.QWidget }
%class.QWidget = type { %class.QObject, %class.QPaintDevice.base, ptr }
%class.QObject = type { ptr, %class.QScopedPointer }
%class.QScopedPointer = type { ptr }
%class.QPaintDevice.base = type <{ ptr, i16 }>
%class.QFlag = type { i32 }

@_ZTV19SCTPAllAssocsDialog = external unnamed_addr constant { [59 x ptr], [10 x ptr] }, align 8

; Function Attrs: mustprogress nounwind uwtable
define linkonce_odr noundef i32 @_ZNK5QFlagcvjEv(ptr noundef nonnull align 4 dereferenceable(4) %0) #1 comdat align 2 {
  %2 = alloca ptr, align 8
  store ptr %0, ptr %2, align 8
  %3 = load ptr, ptr %2, align 8
  %4 = getelementptr inbounds %class.QFlag, ptr %3, i32 0, i32 0
  %5 = load i32, ptr %4, align 4
  ret i32 %5
}

; Function Attrs: mustprogress nounwind uwtable
define linkonce_odr void @_ZN6QFlagsIN2Qt10WindowTypeEEC2E5QFlag(ptr noundef nonnull align 4 dereferenceable(4) %0, i32 %1) unnamed_addr #1 comdat align 2 {
  %3 = alloca %class.QFlag, align 4
  %4 = alloca ptr, align 8
  %5 = getelementptr inbounds %class.QFlag, ptr %3, i32 0, i32 0
  store i32 %1, ptr %5, align 4
  store ptr %0, ptr %4, align 8
  %6 = load ptr, ptr %4, align 8
  %7 = getelementptr inbounds %class.QFlags, ptr %6, i32 0, i32 0
  %8 = call noundef i32 @_ZNK5QFlagcvjEv(ptr noundef nonnull align 4 dereferenceable(4) %3) #11
  store i32 %8, ptr %7, align 4
  ret void
}

; Function Attrs: mustprogress nounwind uwtable
define linkonce_odr void @_ZN5QFlagC2Ej(ptr noundef nonnull align 4 dereferenceable(4) %0, i32 noundef %1) unnamed_addr #1 comdat align 2 {
  %3 = alloca ptr, align 8
  %4 = alloca i32, align 4
  store ptr %0, ptr %3, align 8
  store i32 %1, ptr %4, align 4
  %5 = load ptr, ptr %3, align 8
  %6 = getelementptr inbounds %class.QFlag, ptr %5, i32 0, i32 0
  %7 = load i32, ptr %4, align 4
  store i32 %7, ptr %6, align 4
  ret void
}

; Function Attrs: mustprogress nounwind uwtable
define linkonce_odr void @_ZN6QFlagsIN2Qt10WindowTypeEEC2ES1_(ptr noundef nonnull align 4 dereferenceable(4) %0, i32 noundef %1) unnamed_addr #1 comdat align 2 {
  %3 = alloca ptr, align 8
  %4 = alloca i32, align 4
  store ptr %0, ptr %3, align 8
  store i32 %1, ptr %4, align 4
  %5 = load ptr, ptr %3, align 8
  %6 = getelementptr inbounds %class.QFlags, ptr %5, i32 0, i32 0
  %7 = load i32, ptr %4, align 4
  store i32 %7, ptr %6, align 4
  ret void
}

; Function Attrs: mustprogress nounwind uwtable
define linkonce_odr i32 @_ZNK6QFlagsIN2Qt10WindowTypeEEorES1_(ptr noundef nonnull align 4 dereferenceable(4) %0, i32 noundef %1) #1 comdat align 2 {
  %3 = alloca %class.QFlags, align 4
  %4 = alloca ptr, align 8
  %5 = alloca i32, align 4
  %6 = alloca %class.QFlag, align 4
  store ptr %0, ptr %4, align 8
  store i32 %1, ptr %5, align 4
  %7 = load ptr, ptr %4, align 8
  %8 = getelementptr inbounds %class.QFlags, ptr %7, i32 0, i32 0
  %9 = load i32, ptr %8, align 4
  %10 = load i32, ptr %5, align 4
  %11 = or i32 %9, %10
  call void @_ZN5QFlagC2Ej(ptr noundef nonnull align 4 dereferenceable(4) %6, i32 noundef %11) #11
  %12 = getelementptr inbounds %class.QFlag, ptr %6, i32 0, i32 0
  %13 = load i32, ptr %12, align 4
  call void @_ZN6QFlagsIN2Qt10WindowTypeEEC2E5QFlag(ptr noundef nonnull align 4 dereferenceable(4) %3, i32 %13) #11
  %14 = getelementptr inbounds %class.QFlags, ptr %3, i32 0, i32 0
  %15 = load i32, ptr %14, align 4
  ret i32 %15
}

; Function Attrs: mustprogress nounwind uwtable
define linkonce_odr i32 @_ZN2QtorENS_10WindowTypeES0_(i32 noundef %0, i32 noundef %1) #1 comdat {
  %3 = alloca %class.QFlags, align 4
  %4 = alloca i32, align 4
  %5 = alloca i32, align 4
  %6 = alloca %class.QFlags, align 4
  store i32 %0, ptr %4, align 4
  store i32 %1, ptr %5, align 4
  %7 = load i32, ptr %4, align 4
  call void @_ZN6QFlagsIN2Qt10WindowTypeEEC2ES1_(ptr noundef nonnull align 4 dereferenceable(4) %6, i32 noundef %7) #11
  %8 = load i32, ptr %5, align 4
  %9 = call i32 @_ZNK6QFlagsIN2Qt10WindowTypeEEorES1_(ptr noundef nonnull align 4 dereferenceable(4) %6, i32 noundef %8) #11
  %10 = getelementptr inbounds %class.QFlags, ptr %3, i32 0, i32 0
  store i32 %9, ptr %10, align 4
  %11 = getelementptr inbounds %class.QFlags, ptr %3, i32 0, i32 0
  %12 = load i32, ptr %11, align 4
  ret i32 %12
}

; Function Attrs: mustprogress nounwind uwtable
define linkonce_odr void @_ZN6QFlagsIN2Qt10WindowTypeEEC2Ev(ptr noundef nonnull align 4 dereferenceable(4) %0) unnamed_addr #1 comdat align 2 {
  %2 = alloca ptr, align 8
  store ptr %0, ptr %2, align 8
  %3 = load ptr, ptr %2, align 8
  %4 = getelementptr inbounds %class.QFlags, ptr %3, i32 0, i32 0
  store i32 0, ptr %4, align 4
  ret void
}

; Function Attrs: mustprogress uwtable
define void @_ZN19SCTPAllAssocsDialogC2EP7QWidgetP13_capture_file(ptr noundef nonnull align 8 dereferenceable(58) %0, ptr noundef %1, ptr noundef %2) unnamed_addr #0 align 2 personality ptr @__gxx_personality_v0 {
  %4 = alloca ptr, align 8
  %5 = alloca ptr, align 8
  %6 = alloca ptr, align 8
  %7 = alloca %class.QFlags, align 4
  %8 = alloca ptr, align 8
  %9 = alloca i32, align 4
  %10 = alloca %class.QFlags, align 4
  %11 = alloca %class.QFlags, align 4
  %12 = alloca %class.QFlags, align 4
  %13 = alloca %class.QFlags, align 4
  %14 = alloca %class.QFlags, align 4
  store ptr %0, ptr %4, align 8
  store ptr %1, ptr %5, align 8
  store ptr %2, ptr %6, align 8
  %15 = load ptr, ptr %4, align 8
  %16 = load ptr, ptr %5, align 8
  call void @_ZN6QFlagsIN2Qt10WindowTypeEEC2Ev(ptr noundef nonnull align 4 dereferenceable(4) %7) #11
  %17 = getelementptr inbounds %class.QFlags, ptr %7, i32 0, i32 0
  %18 = load i32, ptr %17, align 4
  call void @_ZN7QDialogC2EP7QWidget6QFlagsIN2Qt10WindowTypeEE(ptr noundef nonnull align 8 dereferenceable(40) %15, ptr noundef %16, i32 %18)
  store ptr getelementptr inbounds ({ [59 x ptr], [10 x ptr] }, ptr @_ZTV19SCTPAllAssocsDialog, i32 0, i32 0, i32 2), ptr %15, align 8
  %19 = getelementptr inbounds i8, ptr %15, i64 16
  store ptr getelementptr inbounds ({ [59 x ptr], [10 x ptr] }, ptr @_ZTV19SCTPAllAssocsDialog, i32 0, i32 1, i32 2), ptr %19, align 8
  %20 = getelementptr inbounds %class.SCTPAllAssocsDialog, ptr %15, i32 0, i32 1
  %21 = invoke noalias noundef nonnull ptr @_Znwm(i64 noundef 64) #13
          to label %22 unwind label %40

22:                                               ; preds = %3
  store ptr %21, ptr %20, align 8
  %23 = getelementptr inbounds %class.SCTPAllAssocsDialog, ptr %15, i32 0, i32 2
  %24 = load ptr, ptr %6, align 8
  store ptr %24, ptr %23, align 8
  %25 = getelementptr inbounds %class.SCTPAllAssocsDialog, ptr %15, i32 0, i32 1
  %26 = load ptr, ptr %25, align 8
  invoke void @_ZN22Ui_SCTPAllAssocsDialog7setupUiEP7QDialog(ptr noundef nonnull align 8 dereferenceable(64) %26, ptr noundef %15)
          to label %27 unwind label %40

27:                                               ; preds = %22
  %28 = call i32 @_ZN2QtorENS_10WindowTypeES0_(i32 noundef 1, i32 noundef 8192) #11
  %29 = getelementptr inbounds %class.QFlags, ptr %13, i32 0, i32 0
  store i32 %28, ptr %29, align 4
  %30 = call i32 @_ZNK6QFlagsIN2Qt10WindowTypeEEorES1_(ptr noundef nonnull align 4 dereferenceable(4) %13, i32 noundef 16384) #11
  %31 = getelementptr inbounds %class.QFlags, ptr %12, i32 0, i32 0
  store i32 %30, ptr %31, align 4
  %32 = call i32 @_ZNK6QFlagsIN2Qt10WindowTypeEEorES1_(ptr noundef nonnull align 4 dereferenceable(4) %12, i32 noundef 32768) #11
  %33 = getelementptr inbounds %class.QFlags, ptr %11, i32 0, i32 0
  store i32 %32, ptr %33, align 4
  %34 = call i32 @_ZNK6QFlagsIN2Qt10WindowTypeEEorES1_(ptr noundef nonnull align 4 dereferenceable(4) %11, i32 noundef 134217728) #11
  %35 = getelementptr inbounds %class.QFlags, ptr %10, i32 0, i32 0
  store i32 %34, ptr %35, align 4
  call void @llvm.memcpy.p0.p0.i64(ptr align 4 %14, ptr align 4 %10, i64 4, i1 false)
  %36 = getelementptr inbounds %class.QFlags, ptr %14, i32 0, i32 0
  %37 = load i32, ptr %36, align 4
  invoke void @_ZN7QWidget14setWindowFlagsE6QFlagsIN2Qt10WindowTypeEE(ptr noundef nonnull align 8 dereferenceable(40) %15, i32 %37)
          to label %38 unwind label %40

38:                                               ; preds = %27
  invoke void @_ZN19SCTPAllAssocsDialog9fillTableEv(ptr noundef nonnull align 8 dereferenceable(58) %15)
          to label %39 unwind label %40

39:                                               ; preds = %38
  ret void

40:                                               ; preds = %38, %27, %22, %3
  %41 = landingpad { ptr, i32 }
          cleanup
  %42 = extractvalue { ptr, i32 } %41, 0
  store ptr %42, ptr %8, align 8
  %43 = extractvalue { ptr, i32 } %41, 1
  store i32 %43, ptr %9, align 4
  call void @_ZN7QDialogD2Ev(ptr noundef nonnull align 8 dereferenceable(40) %15) #11
  br label %44

44:                                               ; preds = %40
  %45 = load ptr, ptr %8, align 8
  %46 = load i32, ptr %9, align 4
  %47 = insertvalue { ptr, i32 } poison, ptr %45, 0
  %48 = insertvalue { ptr, i32 } %47, i32 %46, 1
  resume { ptr, i32 } %48
}