; Function Attrs: mustprogress uwtable
define void @_ZN19SCTPAllAssocsDialogC2EP7QWidgetP13_capture_file(ptr noundef nonnull align 8 dereferenceable(58) %0, ptr noundef %1, ptr noundef %2) unnamed_addr #0 align 2 personality ptr @__gxx_personality_v0 {
  tail call void @_ZN7QDialogC2EP7QWidget6QFlagsIN2Qt10WindowTypeEE(ptr noundef nonnull align 8 dereferenceable(40) %0, ptr noundef %1, i32 0)
  store ptr getelementptr inbounds ({ [59 x ptr], [10 x ptr] }, ptr @_ZTV19SCTPAllAssocsDialog, i64 0, i32 0, i64 2), ptr %0, align 8
  %4 = getelementptr inbounds i8, ptr %0, i64 16
  store ptr getelementptr inbounds ({ [59 x ptr], [10 x ptr] }, ptr @_ZTV19SCTPAllAssocsDialog, i64 0, i32 1, i64 2), ptr %4, align 8
  %5 = invoke noalias noundef nonnull dereferenceable(64) ptr @_Znwm(i64 noundef 64) #8
          to label %6 unwind label %12

6:                                                ; preds = %3
  %7 = getelementptr inbounds i8, ptr %0, i64 40
  store ptr %5, ptr %7, align 8
  %8 = getelementptr inbounds i8, ptr %0, i64 48
  store ptr %2, ptr %8, align 8
  invoke void @_ZN22Ui_SCTPAllAssocsDialog7setupUiEP7QDialog(ptr noundef nonnull align 8 dereferenceable(64) %5, ptr noundef nonnull %0)
          to label %9 unwind label %12

9:                                                ; preds = %6
  invoke void @_ZN7QWidget14setWindowFlagsE6QFlagsIN2Qt10WindowTypeEE(ptr noundef nonnull align 8 dereferenceable(40) %0, i32 134275073)
          to label %10 unwind label %12

10:                                               ; preds = %9
  invoke void @_ZN19SCTPAllAssocsDialog9fillTableEv(ptr noundef nonnull align 8 dereferenceable(58) %0)
          to label %11 unwind label %12

11:                                               ; preds = %10
  ret void

12:                                               ; preds = %10, %9, %6, %3
  %13 = landingpad { ptr, i32 }
          cleanup
  tail call void @_ZN7QDialogD2Ev(ptr noundef nonnull align 8 dereferenceable(40) %0) #9
  resume { ptr, i32 } %13
}